ccopy_reg
_reconstructor
p0
(cpandas.core.frame
DataFrame
p1
c__builtin__
object
p2
Ntp3
Rp4
g0
(cpandas.core.internals
BlockManager
p5
g2
Ntp6
Rp7
((lp8
cnumpy.core.multiarray
_reconstruct
p9
(cpandas.core.index
Index
p10
(I0
tp11
S'b'
p12
tp13
Rp14
((I1
(I3
tp15
cnumpy
dtype
p16
(S'O8'
p17
I0
I1
tp18
Rp19
(I3
S'|'
p20
NNNI-1
I-1
I63
tp21
bI00
(lp22
S'index'
p23
aS'label'
p24
aS'description'
p25
atp26
(Ntp27
tp28
bag9
(cpandas.core.index
Int64Index
p29
(I0
tp30
g12
tp31
Rp32
((I1
(I9
tp33
g16
(S'i8'
p34
I0
I1
tp35
Rp36
(I3
S'<'
p37
NNNI-1
I-1
I0
tp38
bI00
S'\x00\x00\x00\x00\x00\x00\x00\x00\x00\x00\x00\x00\x00\x00\x00\x00\x00\x00\x00\x00\x00\x00\x00\x00\x00\x00\x00\x00\x00\x00\x00\x00\x00\x00\x00\x00\x00\x00\x00\x00\x00\x00\x00\x00\x00\x00\x00\x00\x00\x00\x00\x00\x00\x00\x00\x00\x00\x00\x00\x00\x00\x00\x00\x00\x00\x00\x00\x00\x00\x00\x00\x00'
p39
tp40
(Ntp41
tp42
ba(lp43
g9
(cnumpy
ndarray
p44
(I0
tp45
g12
tp46
Rp47
(I1
(I3
I9
tp48
g19
I00
(lp49
S'10151785416624058_10175536'
p50
aS'10151785416624058_10173510'
p51
aS'10151785416624058_10173432'
p52
aS'10151763424632609_26292200'
p53
aS'10151752125437609_8907059'
p54
aS'10151750720022609_8902637'
p55
aS'10151750720022609_8901895'
p56
aS'10151750720022609_8901872'
p57
aS'10151750720022609_8901791'
p58
aS'No'
p59
ag59
ag59
aS'Yes'
p60
ag60
ag60
ag59
ag59
ag60
aS'Test tagging'
p61
ag61
ag61
ag61
ag61
ag61
ag61
ag61
ag61
atp62
ba(lp63
g9
(g10
(I0
tp64
g12
tp65
Rp66
((I1
(I3
tp67
g19
I00
(lp68
g23
ag24
ag25
atp69
(Ntp70
tp71
batp72
bb.